target datalayout = "e-m:e-p270:32:32-p271:32:32-p272:64:64-i64:64-i128:128-f80:128-n8:16:32:64-S128"
target triple = "x86_64-unknown-linux-gnu"

%class.unifier = type <{ ptr, ptr, %class.svector, %class.expr_offset_map, %class.expr_offset_map.1, i8, [7 x i8] }>
%class.svector = type { %class.vector }
%class.vector = type { ptr }
%class.expr_offset_map = type <{ %class.vector.0, i32, [4 x i8] }>
%class.vector.0 = type { ptr }
%class.expr_offset_map.1 = type <{ %class.vector.2, i32, [4 x i8] }>
%class.vector.2 = type { ptr }
%class.expr_offset = type <{ ptr, i32, [4 x i8] }>
%"struct.expr_offset_map<unsigned int>::data" = type { i32, i32 }
%class.svector.54 = type { %class.vector.55 }
%class.vector.55 = type { ptr }
%class.ast = type { i32, i24, i32, i32 }

; Function Attrs: mustprogress nounwind uwtable
define linkonce_odr hidden noundef nonnull align 4 dereferenceable(8) ptr @_ZNK6vectorIN15expr_offset_mapIjE4dataELb0EjEixEj(ptr noundef nonnull align 8 dereferenceable(8) %this, i32 noundef %idx) #5 comdat align 2 {
entry:
  %this.addr = alloca ptr, align 8
  %idx.addr = alloca i32, align 4
  store ptr %this, ptr %this.addr, align 8
  store i32 %idx, ptr %idx.addr, align 4
  %this1 = load ptr, ptr %this.addr, align 8
  %m_data = getelementptr inbounds %class.vector.55, ptr %this1, i32 0, i32 0
  %0 = load ptr, ptr %m_data, align 8
  %1 = load i32, ptr %idx.addr, align 4
  %idxprom = zext i32 %1 to i64
  %arrayidx = getelementptr inbounds %"struct.expr_offset_map<unsigned int>::data", ptr %0, i64 %idxprom
  ret ptr %arrayidx
}

; Function Attrs: mustprogress nounwind uwtable
define linkonce_odr hidden noundef i32 @_ZNK6vectorIN15expr_offset_mapIjE4dataELb0EjE4sizeEv(ptr noundef nonnull align 8 dereferenceable(8) %this) #5 comdat align 2 {
entry:
  %retval = alloca i32, align 4
  %this.addr = alloca ptr, align 8
  store ptr %this, ptr %this.addr, align 8
  %this1 = load ptr, ptr %this.addr, align 8
  %m_data = getelementptr inbounds %class.vector.55, ptr %this1, i32 0, i32 0
  %0 = load ptr, ptr %m_data, align 8
  %cmp = icmp eq ptr %0, null
  br i1 %cmp, label %if.then, label %if.end

if.then:                                          ; preds = %entry
  store i32 0, ptr %retval, align 4
  br label %return

if.end:                                           ; preds = %entry
  %m_data2 = getelementptr inbounds %class.vector.55, ptr %this1, i32 0, i32 0
  %1 = load ptr, ptr %m_data2, align 8
  %arrayidx = getelementptr inbounds i32, ptr %1, i64 -1
  %2 = load i32, ptr %arrayidx, align 4
  store i32 %2, ptr %retval, align 4
  br label %return

return:                                           ; preds = %if.end, %if.then
  %3 = load i32, ptr %retval, align 4
  ret i32 %3
}

; Function Attrs: mustprogress nounwind uwtable
define linkonce_odr hidden noundef i32 @_ZNK3ast6get_idEv(ptr noundef nonnull align 4 dereferenceable(16) %this) #5 comdat align 2 {
entry:
  %this.addr = alloca ptr, align 8
  store ptr %this, ptr %this.addr, align 8
  %this1 = load ptr, ptr %this.addr, align 8
  %m_id = getelementptr inbounds %class.ast, ptr %this1, i32 0, i32 0
  %0 = load i32, ptr %m_id, align 4
  ret i32 %0
}

; Function Attrs: mustprogress nounwind uwtable
define linkonce_odr hidden noundef ptr @_ZNK11expr_offset8get_exprEv(ptr noundef nonnull align 8 dereferenceable(12) %this) #5 comdat align 2 {
entry:
  %this.addr = alloca ptr, align 8
  store ptr %this, ptr %this.addr, align 8
  %this1 = load ptr, ptr %this.addr, align 8
  %m_expr = getelementptr inbounds %class.expr_offset, ptr %this1, i32 0, i32 0
  %0 = load ptr, ptr %m_expr, align 8
  ret ptr %0
}

; Function Attrs: mustprogress nounwind uwtable
define linkonce_odr hidden noundef nonnull align 8 dereferenceable(8) ptr @_ZNK6vectorI7svectorIN15expr_offset_mapIjE4dataEjELb1EjEixEj(ptr noundef nonnull align 8 dereferenceable(8) %this, i32 noundef %idx) #5 comdat align 2 {
entry:
  %this.addr = alloca ptr, align 8
  %idx.addr = alloca i32, align 4
  store ptr %this, ptr %this.addr, align 8
  store i32 %idx, ptr %idx.addr, align 4
  %this1 = load ptr, ptr %this.addr, align 8
  %m_data = getelementptr inbounds %class.vector.2, ptr %this1, i32 0, i32 0
  %0 = load ptr, ptr %m_data, align 8
  %1 = load i32, ptr %idx.addr, align 4
  %idxprom = zext i32 %1 to i64
  %arrayidx = getelementptr inbounds %class.svector.54, ptr %0, i64 %idxprom
  ret ptr %arrayidx
}

; Function Attrs: mustprogress nounwind uwtable
define linkonce_odr hidden noundef i32 @_ZNK6vectorI7svectorIN15expr_offset_mapIjE4dataEjELb1EjE4sizeEv(ptr noundef nonnull align 8 dereferenceable(8) %this) #5 comdat align 2 {
entry:
  %retval = alloca i32, align 4
  %this.addr = alloca ptr, align 8
  store ptr %this, ptr %this.addr, align 8
  %this1 = load ptr, ptr %this.addr, align 8
  %m_data = getelementptr inbounds %class.vector.2, ptr %this1, i32 0, i32 0
  %0 = load ptr, ptr %m_data, align 8
  %cmp = icmp eq ptr %0, null
  br i1 %cmp, label %if.then, label %if.end

if.then:                                          ; preds = %entry
  store i32 0, ptr %retval, align 4
  br label %return

if.end:                                           ; preds = %entry
  %m_data2 = getelementptr inbounds %class.vector.2, ptr %this1, i32 0, i32 0
  %1 = load ptr, ptr %m_data2, align 8
  %arrayidx = getelementptr inbounds i32, ptr %1, i64 -1
  %2 = load i32, ptr %arrayidx, align 4
  store i32 %2, ptr %retval, align 4
  br label %return

return:                                           ; preds = %if.end, %if.then
  %3 = load i32, ptr %retval, align 4
  ret i32 %3
}

; Function Attrs: mustprogress nounwind uwtable
define linkonce_odr hidden noundef i32 @_ZNK11expr_offset10get_offsetEv(ptr noundef nonnull align 8 dereferenceable(12) %this) #5 comdat align 2 {
entry:
  %this.addr = alloca ptr, align 8
  store ptr %this, ptr %this.addr, align 8
  %this1 = load ptr, ptr %this.addr, align 8
  %m_offset = getelementptr inbounds %class.expr_offset, ptr %this1, i32 0, i32 1
  %0 = load i32, ptr %m_offset, align 8
  ret i32 %0
}

; Function Attrs: mustprogress uwtable
define linkonce_odr hidden noundef zeroext i1 @_ZNK15expr_offset_mapIjE4findERK11expr_offsetRj(ptr noundef nonnull align 8 dereferenceable(12) %this, ptr noundef nonnull align 8 dereferenceable(12) %n, ptr noundef nonnull align 4 dereferenceable(4) %r) #4 comdat align 2 {
entry:
  %retval = alloca i1, align 1
  %this.addr = alloca ptr, align 8
  %n.addr = alloca ptr, align 8
  %r.addr = alloca ptr, align 8
  %off = alloca i32, align 4
  %v = alloca ptr, align 8
  %id = alloca i32, align 4
  store ptr %this, ptr %this.addr, align 8
  store ptr %n, ptr %n.addr, align 8
  store ptr %r, ptr %r.addr, align 8
  %this1 = load ptr, ptr %this.addr, align 8
  %0 = load ptr, ptr %n.addr, align 8
  %call = call noundef i32 @_ZNK11expr_offset10get_offsetEv(ptr noundef nonnull align 8 dereferenceable(12) %0)
  store i32 %call, ptr %off, align 4
  %1 = load i32, ptr %off, align 4
  %m_map = getelementptr inbounds %class.expr_offset_map.1, ptr %this1, i32 0, i32 0
  %call2 = call noundef i32 @_ZNK6vectorI7svectorIN15expr_offset_mapIjE4dataEjELb1EjE4sizeEv(ptr noundef nonnull align 8 dereferenceable(8) %m_map)
  %cmp = icmp ult i32 %1, %call2
  br i1 %cmp, label %if.then, label %if.end14

if.then:                                          ; preds = %entry
  %m_map3 = getelementptr inbounds %class.expr_offset_map.1, ptr %this1, i32 0, i32 0
  %2 = load i32, ptr %off, align 4
  %call4 = call noundef nonnull align 8 dereferenceable(8) ptr @_ZNK6vectorI7svectorIN15expr_offset_mapIjE4dataEjELb1EjEixEj(ptr noundef nonnull align 8 dereferenceable(8) %m_map3, i32 noundef %2)
  store ptr %call4, ptr %v, align 8
  %3 = load ptr, ptr %n.addr, align 8
  %call5 = call noundef ptr @_ZNK11expr_offset8get_exprEv(ptr noundef nonnull align 8 dereferenceable(12) %3)
  %call6 = call noundef i32 @_ZNK3ast6get_idEv(ptr noundef nonnull align 4 dereferenceable(16) %call5)
  store i32 %call6, ptr %id, align 4
  %4 = load i32, ptr %id, align 4
  %5 = load ptr, ptr %v, align 8
  %call7 = call noundef i32 @_ZNK6vectorIN15expr_offset_mapIjE4dataELb0EjE4sizeEv(ptr noundef nonnull align 8 dereferenceable(8) %5)
  %cmp8 = icmp ult i32 %4, %call7
  br i1 %cmp8, label %land.lhs.true, label %if.end

land.lhs.true:                                    ; preds = %if.then
  %6 = load ptr, ptr %v, align 8
  %7 = load i32, ptr %id, align 4
  %call9 = call noundef nonnull align 4 dereferenceable(8) ptr @_ZNK6vectorIN15expr_offset_mapIjE4dataELb0EjEixEj(ptr noundef nonnull align 8 dereferenceable(8) %6, i32 noundef %7)
  %m_timestamp = getelementptr inbounds %"struct.expr_offset_map<unsigned int>::data", ptr %call9, i32 0, i32 1
  %8 = load i32, ptr %m_timestamp, align 4
  %m_timestamp10 = getelementptr inbounds %class.expr_offset_map.1, ptr %this1, i32 0, i32 1
  %9 = load i32, ptr %m_timestamp10, align 8
  %cmp11 = icmp eq i32 %8, %9
  br i1 %cmp11, label %if.then12, label %if.end

if.then12:                                        ; preds = %land.lhs.true
  %10 = load ptr, ptr %v, align 8
  %11 = load i32, ptr %id, align 4
  %call13 = call noundef nonnull align 4 dereferenceable(8) ptr @_ZNK6vectorIN15expr_offset_mapIjE4dataELb0EjEixEj(ptr noundef nonnull align 8 dereferenceable(8) %10, i32 noundef %11)
  %m_data = getelementptr inbounds %"struct.expr_offset_map<unsigned int>::data", ptr %call13, i32 0, i32 0
  %12 = load i32, ptr %m_data, align 4
  %13 = load ptr, ptr %r.addr, align 8
  store i32 %12, ptr %13, align 4
  store i1 true, ptr %retval, align 1
  br label %return

if.end:                                           ; preds = %land.lhs.true, %if.then
  br label %if.end14

if.end14:                                         ; preds = %if.end, %entry
  store i1 false, ptr %retval, align 1
  br label %return

return:                                           ; preds = %if.end14, %if.then12
  %14 = load i1, ptr %retval, align 1
  ret i1 %14
}

; Function Attrs: mustprogress uwtable
define hidden void @_ZN7unifier6union1ERK11expr_offsetS2_(ptr noundef nonnull align 8 dereferenceable(57) %this, ptr noundef nonnull align 8 dereferenceable(12) %n1, ptr noundef nonnull align 8 dereferenceable(12) %n2) #4 align 2 {
entry:
  %this.addr = alloca ptr, align 8
  %n1.addr = alloca ptr, align 8
  %n2.addr = alloca ptr, align 8
  %sz1 = alloca i32, align 4
  %sz2 = alloca i32, align 4
  %ref.tmp = alloca i32, align 4
  store ptr %this, ptr %this.addr, align 8
  store ptr %n1, ptr %n1.addr, align 8
  store ptr %n2, ptr %n2.addr, align 8
  %this1 = load ptr, ptr %this.addr, align 8
  store i32 1, ptr %sz1, align 4
  store i32 1, ptr %sz2, align 4
  %m_size = getelementptr inbounds %class.unifier, ptr %this1, i32 0, i32 4
  %0 = load ptr, ptr %n1.addr, align 8
  %call = call noundef zeroext i1 @_ZNK15expr_offset_mapIjE4findERK11expr_offsetRj(ptr noundef nonnull align 8 dereferenceable(12) %m_size, ptr noundef nonnull align 8 dereferenceable(12) %0, ptr noundef nonnull align 4 dereferenceable(4) %sz1)
  %m_size2 = getelementptr inbounds %class.unifier, ptr %this1, i32 0, i32 4
  %1 = load ptr, ptr %n2.addr, align 8
  %call3 = call noundef zeroext i1 @_ZNK15expr_offset_mapIjE4findERK11expr_offsetRj(ptr noundef nonnull align 8 dereferenceable(12) %m_size2, ptr noundef nonnull align 8 dereferenceable(12) %1, ptr noundef nonnull align 4 dereferenceable(4) %sz2)
  %m_find = getelementptr inbounds %class.unifier, ptr %this1, i32 0, i32 3
  %2 = load ptr, ptr %n1.addr, align 8
  %3 = load ptr, ptr %n2.addr, align 8
  call void @_ZN15expr_offset_mapI11expr_offsetE6insertERKS0_S3_(ptr noundef nonnull align 8 dereferenceable(12) %m_find, ptr noundef nonnull align 8 dereferenceable(12) %2, ptr noundef nonnull align 8 dereferenceable(12) %3)
  %m_size4 = getelementptr inbounds %class.unifier, ptr %this1, i32 0, i32 4
  %4 = load ptr, ptr %n2.addr, align 8
  %5 = load i32, ptr %sz1, align 4
  %6 = load i32, ptr %sz2, align 4
  %add = add i32 %5, %6
  store i32 %add, ptr %ref.tmp, align 4
  call void @_ZN15expr_offset_mapIjE6insertERK11expr_offsetRKj(ptr noundef nonnull align 8 dereferenceable(12) %m_size4, ptr noundef nonnull align 8 dereferenceable(12) %4, ptr noundef nonnull align 4 dereferenceable(4) %ref.tmp)
  %7 = load ptr, ptr %n1.addr, align 8
  %8 = load ptr, ptr %n2.addr, align 8
  call void @_ZN7unifier8save_varERK11expr_offsetS2_(ptr noundef nonnull align 8 dereferenceable(57) %this1, ptr noundef nonnull align 8 dereferenceable(12) %7, ptr noundef nonnull align 8 dereferenceable(12) %8)
  ret void
}