; Function Attrs: mustprogress uwtable
define hidden void @_ZN7unifier6union1ERK11expr_offsetS2_(ptr noundef nonnull align 8 dereferenceable(57) %this, ptr noundef nonnull align 8 dereferenceable(12) %n1, ptr noundef nonnull align 8 dereferenceable(12) %n2) local_unnamed_addr #4 align 2 {
entry:
  %ref.tmp = alloca i32, align 4
  %m_size = getelementptr inbounds i8, ptr %this, i64 40
  %m_offset.i.i = getelementptr inbounds i8, ptr %n1, i64 8
  %0 = load i32, ptr %m_offset.i.i, align 8
  %1 = load ptr, ptr %m_size, align 8
  %cmp.i.i = icmp eq ptr %1, null
  br i1 %cmp.i.i, label %_ZNK15expr_offset_mapIjE4findERK11expr_offsetRj.exit26, label %_ZNK6vectorI7svectorIN15expr_offset_mapIjE4dataEjELb1EjE4sizeEv.exit.i

_ZNK6vectorI7svectorIN15expr_offset_mapIjE4dataEjELb1EjE4sizeEv.exit.i: ; preds = %entry
  %arrayidx.i.i = getelementptr inbounds i8, ptr %1, i64 -4
  %2 = load i32, ptr %arrayidx.i.i, align 4
  %cmp.i = icmp ult i32 %0, %2
  br i1 %cmp.i, label %if.then.i, label %_ZNK6vectorI7svectorIN15expr_offset_mapIjE4dataEjELb1EjE4sizeEv.exit.i8

if.then.i:                                        ; preds = %_ZNK6vectorI7svectorIN15expr_offset_mapIjE4dataEjELb1EjE4sizeEv.exit.i
  %idxprom.i.i = zext i32 %0 to i64
  %arrayidx.i7.i = getelementptr inbounds %class.svector.54, ptr %1, i64 %idxprom.i.i
  %3 = load ptr, ptr %n1, align 8
  %4 = load i32, ptr %3, align 4
  %5 = load ptr, ptr %arrayidx.i7.i, align 8
  %cmp.i8.i = icmp eq ptr %5, null
  br i1 %cmp.i8.i, label %_ZNK6vectorI7svectorIN15expr_offset_mapIjE4dataEjELb1EjE4sizeEv.exit.i8, label %_ZNK6vectorIN15expr_offset_mapIjE4dataELb0EjE4sizeEv.exit.i

_ZNK6vectorIN15expr_offset_mapIjE4dataELb0EjE4sizeEv.exit.i: ; preds = %if.then.i
  %arrayidx.i10.i = getelementptr inbounds i8, ptr %5, i64 -4
  %6 = load i32, ptr %arrayidx.i10.i, align 4
  %cmp8.i = icmp ult i32 %4, %6
  br i1 %cmp8.i, label %land.lhs.true.i, label %_ZNK6vectorI7svectorIN15expr_offset_mapIjE4dataEjELb1EjE4sizeEv.exit.i8

land.lhs.true.i:                                  ; preds = %_ZNK6vectorIN15expr_offset_mapIjE4dataELb0EjE4sizeEv.exit.i
  %idxprom.i12.i = zext i32 %4 to i64
  %arrayidx.i13.i = getelementptr inbounds %"struct.expr_offset_map<unsigned int>::data", ptr %5, i64 %idxprom.i12.i
  %m_timestamp.i = getelementptr inbounds i8, ptr %arrayidx.i13.i, i64 4
  %7 = load i32, ptr %m_timestamp.i, align 4
  %m_timestamp10.i = getelementptr inbounds i8, ptr %this, i64 48
  %8 = load i32, ptr %m_timestamp10.i, align 8
  %cmp11.i = icmp eq i32 %7, %8
  br i1 %cmp11.i, label %if.then12.i, label %_ZNK6vectorI7svectorIN15expr_offset_mapIjE4dataEjELb1EjE4sizeEv.exit.i8

if.then12.i:                                      ; preds = %land.lhs.true.i
  %9 = load i32, ptr %arrayidx.i13.i, align 4
  br label %_ZNK6vectorI7svectorIN15expr_offset_mapIjE4dataEjELb1EjE4sizeEv.exit.i8

_ZNK6vectorI7svectorIN15expr_offset_mapIjE4dataEjELb1EjE4sizeEv.exit.i8: ; preds = %_ZNK6vectorI7svectorIN15expr_offset_mapIjE4dataEjELb1EjE4sizeEv.exit.i, %if.then.i, %_ZNK6vectorIN15expr_offset_mapIjE4dataELb0EjE4sizeEv.exit.i, %land.lhs.true.i, %if.then12.i
  %sz1.0.ph = phi i32 [ 1, %_ZNK6vectorI7svectorIN15expr_offset_mapIjE4dataEjELb1EjE4sizeEv.exit.i ], [ 1, %_ZNK6vectorIN15expr_offset_mapIjE4dataELb0EjE4sizeEv.exit.i ], [ 1, %land.lhs.true.i ], [ %9, %if.then12.i ], [ 1, %if.then.i ]
  %m_offset.i.i628 = getelementptr inbounds i8, ptr %n2, i64 8
  %10 = load i32, ptr %m_offset.i.i628, align 8
  %cmp.i10 = icmp ult i32 %10, %2
  br i1 %cmp.i10, label %if.then.i12, label %_ZNK15expr_offset_mapIjE4findERK11expr_offsetRj.exit26

if.then.i12:                                      ; preds = %_ZNK6vectorI7svectorIN15expr_offset_mapIjE4dataEjELb1EjE4sizeEv.exit.i8
  %idxprom.i.i13 = zext i32 %10 to i64
  %arrayidx.i7.i14 = getelementptr inbounds %class.svector.54, ptr %1, i64 %idxprom.i.i13
  %11 = load ptr, ptr %n2, align 8
  %12 = load i32, ptr %11, align 4
  %13 = load ptr, ptr %arrayidx.i7.i14, align 8
  %cmp.i8.i15 = icmp eq ptr %13, null
  br i1 %cmp.i8.i15, label %_ZNK15expr_offset_mapIjE4findERK11expr_offsetRj.exit26, label %_ZNK6vectorIN15expr_offset_mapIjE4dataELb0EjE4sizeEv.exit.i16

_ZNK6vectorIN15expr_offset_mapIjE4dataELb0EjE4sizeEv.exit.i16: ; preds = %if.then.i12
  %arrayidx.i10.i17 = getelementptr inbounds i8, ptr %13, i64 -4
  %14 = load i32, ptr %arrayidx.i10.i17, align 4
  %cmp8.i18 = icmp ult i32 %12, %14
  br i1 %cmp8.i18, label %land.lhs.true.i19, label %_ZNK15expr_offset_mapIjE4findERK11expr_offsetRj.exit26

land.lhs.true.i19:                                ; preds = %_ZNK6vectorIN15expr_offset_mapIjE4dataELb0EjE4sizeEv.exit.i16
  %idxprom.i12.i20 = zext i32 %12 to i64
  %arrayidx.i13.i21 = getelementptr inbounds %"struct.expr_offset_map<unsigned int>::data", ptr %13, i64 %idxprom.i12.i20
  %m_timestamp.i22 = getelementptr inbounds i8, ptr %arrayidx.i13.i21, i64 4
  %15 = load i32, ptr %m_timestamp.i22, align 4
  %m_timestamp10.i23 = getelementptr inbounds i8, ptr %this, i64 48
  %16 = load i32, ptr %m_timestamp10.i23, align 8
  %cmp11.i24 = icmp eq i32 %15, %16
  br i1 %cmp11.i24, label %if.then12.i25, label %_ZNK15expr_offset_mapIjE4findERK11expr_offsetRj.exit26

if.then12.i25:                                    ; preds = %land.lhs.true.i19
  %17 = load i32, ptr %arrayidx.i13.i21, align 4
  br label %_ZNK15expr_offset_mapIjE4findERK11expr_offsetRj.exit26

_ZNK15expr_offset_mapIjE4findERK11expr_offsetRj.exit26: ; preds = %entry, %_ZNK6vectorI7svectorIN15expr_offset_mapIjE4dataEjELb1EjE4sizeEv.exit.i8, %if.then.i12, %_ZNK6vectorIN15expr_offset_mapIjE4dataELb0EjE4sizeEv.exit.i16, %land.lhs.true.i19, %if.then12.i25
  %sz1.030 = phi i32 [ %sz1.0.ph, %if.then.i12 ], [ %sz1.0.ph, %if.then12.i25 ], [ %sz1.0.ph, %land.lhs.true.i19 ], [ %sz1.0.ph, %_ZNK6vectorIN15expr_offset_mapIjE4dataELb0EjE4sizeEv.exit.i16 ], [ %sz1.0.ph, %_ZNK6vectorI7svectorIN15expr_offset_mapIjE4dataEjELb1EjE4sizeEv.exit.i8 ], [ 1, %entry ]
  %sz2.0 = phi i32 [ 1, %if.then.i12 ], [ %17, %if.then12.i25 ], [ 1, %land.lhs.true.i19 ], [ 1, %_ZNK6vectorIN15expr_offset_mapIjE4dataELb0EjE4sizeEv.exit.i16 ], [ 1, %_ZNK6vectorI7svectorIN15expr_offset_mapIjE4dataEjELb1EjE4sizeEv.exit.i8 ], [ 1, %entry ]
  %m_find = getelementptr inbounds i8, ptr %this, i64 24
  tail call void @_ZN15expr_offset_mapI11expr_offsetE6insertERKS0_S3_(ptr noundef nonnull align 8 dereferenceable(12) %m_find, ptr noundef nonnull align 8 dereferenceable(12) %n1, ptr noundef nonnull align 8 dereferenceable(12) %n2)
  %add = add i32 %sz2.0, %sz1.030
  store i32 %add, ptr %ref.tmp, align 4
  call void @_ZN15expr_offset_mapIjE6insertERK11expr_offsetRKj(ptr noundef nonnull align 8 dereferenceable(12) %m_size, ptr noundef nonnull align 8 dereferenceable(12) %n2, ptr noundef nonnull align 4 dereferenceable(4) %ref.tmp)
  call void @_ZN7unifier8save_varERK11expr_offsetS2_(ptr noundef nonnull align 8 dereferenceable(57) %this, ptr noundef nonnull align 8 dereferenceable(12) %n1, ptr noundef nonnull align 8 dereferenceable(12) %n2)
  ret void
}